target datalayout = "e-m:e-p270:32:32-p271:32:32-p272:64:64-i64:64-i128:128-f80:128-n8:16:32:64-S128"
target triple = "x86_64-pc-linux-gnu"

@.str.16 = private unnamed_addr constant [8 x i8] c"file://\00", align 1
@.str.18 = private unnamed_addr constant [3 x i8] c"%s\00", align 1

; Function Attrs: nounwind uwtable
define internal i32 @php_plain_files_unlink(ptr noundef %0, ptr noundef %1, i32 noundef %2, ptr noundef %3) #0 {
  %5 = alloca i32, align 4
  %6 = alloca ptr, align 8
  %7 = alloca ptr, align 8
  %8 = alloca i32, align 4
  %9 = alloca ptr, align 8
  %10 = alloca i32, align 4
  %11 = alloca i32, align 4
  store ptr %0, ptr %6, align 8, !tbaa !71
  store ptr %1, ptr %7, align 8, !tbaa !4
  store i32 %2, ptr %8, align 4, !tbaa !12
  store ptr %3, ptr %9, align 8, !tbaa !72
  call void @llvm.lifetime.start.p0(i64 4, ptr %10) #13
  %12 = load ptr, ptr %7, align 8, !tbaa !4
  %13 = call i32 @strncasecmp(ptr noundef %12, ptr noundef @.str.16, i64 noundef 7) #14
  %14 = icmp eq i32 %13, 0
  br i1 %14, label %15, label %18

15:                                               ; preds = %4
  %16 = load ptr, ptr %7, align 8, !tbaa !4
  %17 = getelementptr inbounds nuw i8, ptr %16, i64 7
  store ptr %17, ptr %7, align 8, !tbaa !4
  br label %18

18:                                               ; preds = %15, %4
  %19 = load ptr, ptr %7, align 8, !tbaa !4
  %20 = call i32 @php_check_open_basedir(ptr noundef %19)
  %21 = icmp ne i32 %20, 0
  br i1 %21, label %22, label %23

22:                                               ; preds = %18
  store i32 0, ptr %5, align 4
  store i32 1, ptr %11, align 4
  br label %39

23:                                               ; preds = %18
  %24 = load ptr, ptr %7, align 8, !tbaa !4
  %25 = call i32 @unlink(ptr noundef %24) #13
  store i32 %25, ptr %10, align 4, !tbaa !12
  %26 = load i32, ptr %10, align 4, !tbaa !12
  %27 = icmp eq i32 %26, -1
  br i1 %27, label %28, label %38

28:                                               ; preds = %23
  %29 = load i32, ptr %8, align 4, !tbaa !12
  %30 = and i32 %29, 8
  %31 = icmp ne i32 %30, 0
  br i1 %31, label %32, label %37

32:                                               ; preds = %28
  %33 = load ptr, ptr %7, align 8, !tbaa !4
  %34 = call ptr @__errno_location() #16
  %35 = load i32, ptr %34, align 4, !tbaa !12
  %36 = call ptr @strerror(i32 noundef %35) #13
  call void (ptr, ptr, i32, ptr, ...) @php_error_docref1(ptr noundef null, ptr noundef %33, i32 noundef 2, ptr noundef @.str.18, ptr noundef %36)
  br label %37

37:                                               ; preds = %32, %28
  store i32 0, ptr %5, align 4
  store i32 1, ptr %11, align 4
  br label %39

38:                                               ; preds = %23
  call void @php_clear_stat_cache(i1 noundef zeroext true, ptr noundef null, i64 noundef 0)
  store i32 1, ptr %5, align 4
  store i32 1, ptr %11, align 4
  br label %39

39:                                               ; preds = %38, %37, %22
  call void @llvm.lifetime.end.p0(i64 4, ptr %10) #13
  %40 = load i32, ptr %5, align 4
  ret i32 %40
}