; Function Attrs: nounwind uwtable
define internal range(i32 0, 2) i32 @php_plain_files_unlink(ptr readnone captures(none) %0, ptr noundef %1, i32 noundef %2, ptr readnone captures(none) %3) #3 {
  %5 = tail call i32 @strncasecmp(ptr noundef %1, ptr noundef nonnull @.str.16, i64 noundef 7) #16
  %6 = icmp eq i32 %5, 0
  %spec.select.idx = select i1 %6, i64 7, i64 0
  %spec.select = getelementptr inbounds nuw i8, ptr %1, i64 %spec.select.idx
  %7 = tail call i32 @php_check_open_basedir(ptr noundef %spec.select) #17
  %.not = icmp eq i32 %7, 0
  br i1 %.not, label %8, label %18

8:                                                ; preds = %4
  %9 = tail call i32 @unlink(ptr noundef %spec.select) #17
  %10 = icmp eq i32 %9, -1
  br i1 %10, label %11, label %17

11:                                               ; preds = %8
  %12 = and i32 %2, 8
  %.not8 = icmp eq i32 %12, 0
  br i1 %.not8, label %18, label %13

13:                                               ; preds = %11
  %14 = tail call ptr @__errno_location() #19
  %15 = load i32, ptr %14, align 4, !tbaa !7
  %16 = tail call ptr @strerror(i32 noundef %15) #17
  tail call void (ptr, ptr, i32, ptr, ...) @php_error_docref1(ptr noundef null, ptr noundef %spec.select, i32 noundef 2, ptr noundef nonnull @.str.18, ptr noundef %16) #17
  br label %18

17:                                               ; preds = %8
  tail call void @php_clear_stat_cache(i1 noundef zeroext true, ptr noundef null, i64 noundef 0) #17
  br label %18

18:                                               ; preds = %11, %13, %4, %17
  %.0 = phi i32 [ 1, %17 ], [ 0, %4 ], [ 0, %13 ], [ 0, %11 ]
  ret i32 %.0
}